target datalayout = "e-m:e-p270:32:32-p271:32:32-p272:64:64-i64:64-i128:128-f80:128-n8:16:32:64-S128"
target triple = "x86_64-pc-linux-gnu"

%"class.google::protobuf::internal::MapFieldBase" = type <{ ptr, ptr, ptr, %"class.google::protobuf::internal::WrappedMutex", %"struct.std::atomic", [4 x i8] }>
%"class.google::protobuf::internal::WrappedMutex" = type { %"class.std::mutex" }
%"class.std::mutex" = type { %"class.std::__mutex_base" }
%"class.std::__mutex_base" = type { %union.pthread_mutex_t }
%union.pthread_mutex_t = type { %struct.__pthread_mutex_s }
%struct.__pthread_mutex_s = type { i32, i32, i32, i32, i32, i16, i16, %struct.__pthread_internal_list }
%struct.__pthread_internal_list = type { ptr, ptr }
%"struct.std::atomic" = type { i32 }
%"class.google::protobuf::internal::RepeatedPtrFieldBase" = type { ptr, i32, i32, ptr }
%"struct.google::protobuf::internal::RepeatedPtrFieldBase::Rep" = type { i32, [268435454 x ptr] }

; Function Attrs: inlinehint mustprogress uwtable
define linkonce_odr hidden noundef i64 @_ZN6google8protobuf8internal18GenericTypeHandlerINS0_7MessageEE13SpaceUsedLongERKS3_(ptr noundef nonnull align 8 dereferenceable(16) %0) #11 comdat align 2 {
  %2 = alloca ptr, align 8
  store ptr %0, ptr %2, align 8, !tbaa !45
  %3 = load ptr, ptr %2, align 8, !tbaa !45
  %4 = load ptr, ptr %3, align 8, !tbaa !18
  %5 = getelementptr inbounds ptr, ptr %4, i64 15
  %6 = load ptr, ptr %5, align 8
  %7 = call noundef i64 %6(ptr noundef nonnull align 8 dereferenceable(16) %3)
  ret i64 %7
}

; Function Attrs: inlinehint mustprogress nounwind uwtable
define linkonce_odr hidden noundef ptr @_ZN6google8protobuf8internal20RepeatedPtrFieldBase4castINS0_16RepeatedPtrFieldINS0_7MessageEE11TypeHandlerEEEPNT_4TypeEPv(ptr noundef %0) #10 comdat align 2 {
  %2 = alloca ptr, align 8
  store ptr %0, ptr %2, align 8, !tbaa !26
  %3 = load ptr, ptr %2, align 8, !tbaa !26
  ret ptr %3
}

; Function Attrs: inlinehint mustprogress uwtable
define linkonce_odr hidden noundef i64 @_ZNK6google8protobuf8internal20RepeatedPtrFieldBase26SpaceUsedExcludingSelfLongINS0_16RepeatedPtrFieldINS0_7MessageEE11TypeHandlerEEEmv(ptr noundef nonnull align 8 dereferenceable(24) %0) #11 comdat align 2 {
  %2 = alloca ptr, align 8
  %3 = alloca i64, align 8
  %4 = alloca i32, align 4
  store ptr %0, ptr %2, align 8, !tbaa !184
  %5 = load ptr, ptr %2, align 8
  call void @llvm.lifetime.start.p0(i64 8, ptr %3) #3
  %6 = getelementptr inbounds nuw %"class.google::protobuf::internal::RepeatedPtrFieldBase", ptr %5, i32 0, i32 2
  %7 = load i32, ptr %6, align 4, !tbaa !255
  %8 = sext i32 %7 to i64
  %9 = mul i64 %8, 8
  store i64 %9, ptr %3, align 8, !tbaa !37
  %10 = getelementptr inbounds nuw %"class.google::protobuf::internal::RepeatedPtrFieldBase", ptr %5, i32 0, i32 3
  %11 = load ptr, ptr %10, align 8, !tbaa !186
  %12 = icmp ne ptr %11, null
  br i1 %12, label %13, label %40

13:                                               ; preds = %1
  call void @llvm.lifetime.start.p0(i64 4, ptr %4) #3
  store i32 0, ptr %4, align 4, !tbaa !41
  br label %14

14:                                               ; preds = %34, %13
  %15 = load i32, ptr %4, align 4, !tbaa !41
  %16 = getelementptr inbounds nuw %"class.google::protobuf::internal::RepeatedPtrFieldBase", ptr %5, i32 0, i32 3
  %17 = load ptr, ptr %16, align 8, !tbaa !186
  %18 = getelementptr inbounds nuw %"struct.google::protobuf::internal::RepeatedPtrFieldBase::Rep", ptr %17, i32 0, i32 0
  %19 = load i32, ptr %18, align 8, !tbaa !194
  %20 = icmp slt i32 %15, %19
  br i1 %20, label %22, label %21

21:                                               ; preds = %14
  call void @llvm.lifetime.end.p0(i64 4, ptr %4) #3
  br label %37

22:                                               ; preds = %14
  %23 = getelementptr inbounds nuw %"class.google::protobuf::internal::RepeatedPtrFieldBase", ptr %5, i32 0, i32 3
  %24 = load ptr, ptr %23, align 8, !tbaa !186
  %25 = getelementptr inbounds nuw %"struct.google::protobuf::internal::RepeatedPtrFieldBase::Rep", ptr %24, i32 0, i32 1
  %26 = load i32, ptr %4, align 4, !tbaa !41
  %27 = sext i32 %26 to i64
  %28 = getelementptr inbounds [268435454 x ptr], ptr %25, i64 0, i64 %27
  %29 = load ptr, ptr %28, align 8, !tbaa !26
  %30 = call noundef ptr @_ZN6google8protobuf8internal20RepeatedPtrFieldBase4castINS0_16RepeatedPtrFieldINS0_7MessageEE11TypeHandlerEEEPNT_4TypeEPv(ptr noundef %29)
  %31 = call noundef i64 @_ZN6google8protobuf8internal18GenericTypeHandlerINS0_7MessageEE13SpaceUsedLongERKS3_(ptr noundef nonnull align 8 dereferenceable(16) %30)
  %32 = load i64, ptr %3, align 8, !tbaa !37
  %33 = add i64 %32, %31
  store i64 %33, ptr %3, align 8, !tbaa !37
  br label %34

34:                                               ; preds = %22
  %35 = load i32, ptr %4, align 4, !tbaa !41
  %36 = add nsw i32 %35, 1
  store i32 %36, ptr %4, align 4, !tbaa !41
  br label %14, !llvm.loop !257

37:                                               ; preds = %21
  %38 = load i64, ptr %3, align 8, !tbaa !37
  %39 = add i64 %38, 8
  store i64 %39, ptr %3, align 8, !tbaa !37
  br label %40

40:                                               ; preds = %37, %1
  %41 = load i64, ptr %3, align 8, !tbaa !37
  call void @llvm.lifetime.end.p0(i64 8, ptr %3) #3
  ret i64 %41
}

; Function Attrs: inlinehint mustprogress uwtable
define linkonce_odr hidden noundef i64 @_ZNK6google8protobuf16RepeatedPtrFieldINS0_7MessageEE26SpaceUsedExcludingSelfLongEv(ptr noundef nonnull align 8 dereferenceable(24) %0) #11 comdat align 2 {
  %2 = alloca ptr, align 8
  store ptr %0, ptr %2, align 8, !tbaa !3
  %3 = load ptr, ptr %2, align 8
  %4 = call noundef i64 @_ZNK6google8protobuf8internal20RepeatedPtrFieldBase26SpaceUsedExcludingSelfLongINS0_16RepeatedPtrFieldINS0_7MessageEE11TypeHandlerEEEmv(ptr noundef nonnull align 8 dereferenceable(24) %3)
  ret i64 %4
}

; Function Attrs: mustprogress uwtable
define hidden noundef i64 @_ZNK6google8protobuf8internal12MapFieldBase28SpaceUsedExcludingSelfNoLockEv(ptr noundef nonnull align 8 dereferenceable(68) %0) unnamed_addr #7 align 2 {
  %2 = alloca i64, align 8
  %3 = alloca ptr, align 8
  store ptr %0, ptr %3, align 8, !tbaa !8
  %4 = load ptr, ptr %3, align 8
  %5 = getelementptr inbounds nuw %"class.google::protobuf::internal::MapFieldBase", ptr %4, i32 0, i32 2
  %6 = load ptr, ptr %5, align 8, !tbaa !10
  %7 = icmp ne ptr %6, null
  br i1 %7, label %8, label %12

8:                                                ; preds = %1
  %9 = getelementptr inbounds nuw %"class.google::protobuf::internal::MapFieldBase", ptr %4, i32 0, i32 2
  %10 = load ptr, ptr %9, align 8, !tbaa !10
  %11 = call noundef i64 @_ZNK6google8protobuf16RepeatedPtrFieldINS0_7MessageEE26SpaceUsedExcludingSelfLongEv(ptr noundef nonnull align 8 dereferenceable(24) %10)
  store i64 %11, ptr %2, align 8
  br label %13

12:                                               ; preds = %1
  store i64 0, ptr %2, align 8
  br label %13

13:                                               ; preds = %12, %8
  %14 = load i64, ptr %2, align 8
  ret i64 %14
}