; Function Attrs: mustprogress uwtable
define hidden noundef i64 @_ZNK6google8protobuf8internal12MapFieldBase28SpaceUsedExcludingSelfNoLockEv(ptr noundef nonnull readonly align 8 captures(none) dereferenceable(68) %0) unnamed_addr #6 align 2 {
  %2 = getelementptr inbounds nuw i8, ptr %0, i64 16
  %3 = load ptr, ptr %2, align 8, !tbaa !3
  %.not = icmp eq ptr %3, null
  br i1 %.not, label %_ZNK6google8protobuf16RepeatedPtrFieldINS0_7MessageEE26SpaceUsedExcludingSelfLongEv.exit, label %4

4:                                                ; preds = %1
  %5 = getelementptr inbounds nuw i8, ptr %3, i64 12
  %6 = load i32, ptr %5, align 4, !tbaa !48
  %7 = sext i32 %6 to i64
  %8 = shl nsw i64 %7, 3
  %9 = getelementptr inbounds nuw i8, ptr %3, i64 16
  %10 = load ptr, ptr %9, align 8, !tbaa !26
  %.not.i.i = icmp eq ptr %10, null
  br i1 %.not.i.i, label %_ZNK6google8protobuf16RepeatedPtrFieldINS0_7MessageEE26SpaceUsedExcludingSelfLongEv.exit, label %.preheader.i.i

.preheader.i.i:                                   ; preds = %4
  %11 = load i32, ptr %10, align 8, !tbaa !31
  %12 = icmp sgt i32 %11, 0
  br i1 %12, label %.lr.ph.i.i, label %._crit_edge.i.i

._crit_edge.i.i:                                  ; preds = %.lr.ph.i.i, %.preheader.i.i
  %.1.lcssa.i.i = phi i64 [ %8, %.preheader.i.i ], [ %22, %.lr.ph.i.i ]
  %13 = add i64 %.1.lcssa.i.i, 8
  br label %_ZNK6google8protobuf16RepeatedPtrFieldINS0_7MessageEE26SpaceUsedExcludingSelfLongEv.exit

.lr.ph.i.i:                                       ; preds = %.preheader.i.i, %.lr.ph.i.i
  %indvars.iv.i.i = phi i64 [ %indvars.iv.next.i.i, %.lr.ph.i.i ], [ 0, %.preheader.i.i ]
  %14 = phi ptr [ %23, %.lr.ph.i.i ], [ %10, %.preheader.i.i ]
  %.17.i.i = phi i64 [ %22, %.lr.ph.i.i ], [ %8, %.preheader.i.i ]
  %15 = getelementptr inbounds nuw i8, ptr %14, i64 8
  %16 = getelementptr inbounds nuw [268435454 x ptr], ptr %15, i64 0, i64 %indvars.iv.i.i
  %17 = load ptr, ptr %16, align 8, !tbaa !28
  %18 = load ptr, ptr %17, align 8, !tbaa !15
  %19 = getelementptr inbounds nuw i8, ptr %18, i64 120
  %20 = load ptr, ptr %19, align 8
  %21 = tail call noundef i64 %20(ptr noundef nonnull align 8 dereferenceable(16) %17)
  %22 = add i64 %21, %.17.i.i
  %indvars.iv.next.i.i = add nuw nsw i64 %indvars.iv.i.i, 1
  %23 = load ptr, ptr %9, align 8, !tbaa !26
  %24 = load i32, ptr %23, align 8, !tbaa !31
  %25 = sext i32 %24 to i64
  %26 = icmp slt i64 %indvars.iv.next.i.i, %25
  br i1 %26, label %.lr.ph.i.i, label %._crit_edge.i.i, !llvm.loop !49

_ZNK6google8protobuf16RepeatedPtrFieldINS0_7MessageEE26SpaceUsedExcludingSelfLongEv.exit: ; preds = %._crit_edge.i.i, %4, %1
  %.0 = phi i64 [ 0, %1 ], [ %13, %._crit_edge.i.i ], [ %8, %4 ]
  ret i64 %.0
}